target datalayout = "e-m:e-p270:32:32-p271:32:32-p272:64:64-i64:64-i128:128-f80:128-n8:16:32:64-S128"
target triple = "x86_64-pc-linux-gnu"

%"struct.llvm::SubtargetFeatureKV" = type { ptr, ptr, i32, %"class.llvm::FeatureBitArray" }
%"class.llvm::FeatureBitArray" = type { %"class.llvm::FeatureBitset" }
%"class.llvm::FeatureBitset" = type { %"struct.std::array" }
%"struct.std::array" = type { [5 x i64] }
%"struct.llvm::SubtargetSubTypeKV" = type { ptr, %"class.llvm::FeatureBitArray", %"class.llvm::FeatureBitArray", ptr }
%"struct.llvm::MCWriteProcResEntry" = type { i16, i16, i16 }
%"struct.llvm::MCWriteLatencyEntry" = type { i16, i16 }
%"struct.llvm::MCReadAdvanceEntry" = type { i32, i32, i32 }
%"class.llvm::StringRef" = type { ptr, i64 }
%"class.llvm::ArrayRef" = type { ptr, i64 }
%"class.llvm::ArrayRef.0" = type { ptr, i64 }

@_ZN4llvm16AArch64FeatureKVE = external global [0 x %"struct.llvm::SubtargetFeatureKV"], align 8
@_ZN4llvm16AArch64SubTypeKVE = external global [0 x %"struct.llvm::SubtargetSubTypeKV"], align 8
@_ZN4llvm24AArch64WriteProcResTableE = external global [0 x %"struct.llvm::MCWriteProcResEntry"], align 2
@_ZN4llvm24AArch64WriteLatencyTableE = external global [0 x %"struct.llvm::MCWriteLatencyEntry"], align 2
@_ZN4llvm23AArch64ReadAdvanceTableE = external global [0 x %"struct.llvm::MCReadAdvanceEntry"], align 4

; Function Attrs: mustprogress nounwind uwtable
define linkonce_odr hidden void @_ZN4llvm8ArrayRefINS_18SubtargetSubTypeKVEEC2EPKS1_m(ptr noundef nonnull align 8 dereferenceable(16) %0, ptr noundef %1, i64 noundef %2) unnamed_addr #0 comdat align 2 {
  %4 = alloca ptr, align 8
  %5 = alloca ptr, align 8
  %6 = alloca i64, align 8
  store ptr %0, ptr %4, align 8
  store ptr %1, ptr %5, align 8
  store i64 %2, ptr %6, align 8
  %7 = load ptr, ptr %4, align 8
  %8 = getelementptr inbounds nuw %"class.llvm::ArrayRef.0", ptr %7, i32 0, i32 0
  %9 = load ptr, ptr %5, align 8
  store ptr %9, ptr %8, align 8
  %10 = getelementptr inbounds nuw %"class.llvm::ArrayRef.0", ptr %7, i32 0, i32 1
  %11 = load i64, ptr %6, align 8
  store i64 %11, ptr %10, align 8
  ret void
}

; Function Attrs: mustprogress nounwind uwtable
define linkonce_odr hidden void @_ZN4llvm8ArrayRefINS_18SubtargetFeatureKVEEC2EPKS1_m(ptr noundef nonnull align 8 dereferenceable(16) %0, ptr noundef %1, i64 noundef %2) unnamed_addr #0 comdat align 2 {
  %4 = alloca ptr, align 8
  %5 = alloca ptr, align 8
  %6 = alloca i64, align 8
  store ptr %0, ptr %4, align 8
  store ptr %1, ptr %5, align 8
  store i64 %2, ptr %6, align 8
  %7 = load ptr, ptr %4, align 8
  %8 = getelementptr inbounds nuw %"class.llvm::ArrayRef", ptr %7, i32 0, i32 0
  %9 = load ptr, ptr %5, align 8
  store ptr %9, ptr %8, align 8
  %10 = getelementptr inbounds nuw %"class.llvm::ArrayRef", ptr %7, i32 0, i32 1
  %11 = load i64, ptr %6, align 8
  store i64 %11, ptr %10, align 8
  ret void
}

; Function Attrs: mustprogress nounwind uwtable
define dso_local void @_ZN4llvm23AArch64GenSubtargetInfoC2ERKNS_6TripleENS_9StringRefES4_S4_(ptr noundef nonnull align 8 dereferenceable(288) %0, ptr noundef nonnull align 8 dereferenceable(56) %1, ptr %2, i64 %3, ptr %4, i64 %5, ptr noundef byval(%"class.llvm::StringRef") align 8 %6) unnamed_addr #0 align 2 {
  %8 = alloca %"class.llvm::StringRef", align 8
  %9 = alloca %"class.llvm::StringRef", align 8
  %10 = alloca ptr, align 8
  %11 = alloca ptr, align 8
  %12 = alloca %"class.llvm::StringRef", align 8
  %13 = alloca %"class.llvm::StringRef", align 8
  %14 = alloca %"class.llvm::StringRef", align 8
  %15 = alloca %"class.llvm::StringRef", align 8
  %16 = alloca %"class.llvm::StringRef", align 8
  %17 = alloca %"class.llvm::ArrayRef", align 8
  %18 = alloca %"class.llvm::ArrayRef.0", align 8
  %19 = getelementptr inbounds nuw { ptr, i64 }, ptr %8, i32 0, i32 0
  store ptr %2, ptr %19, align 8
  %20 = getelementptr inbounds nuw { ptr, i64 }, ptr %8, i32 0, i32 1
  store i64 %3, ptr %20, align 8
  %21 = getelementptr inbounds nuw { ptr, i64 }, ptr %9, i32 0, i32 0
  store ptr %4, ptr %21, align 8
  %22 = getelementptr inbounds nuw { ptr, i64 }, ptr %9, i32 0, i32 1
  store i64 %5, ptr %22, align 8
  store ptr %0, ptr %10, align 8
  store ptr %1, ptr %11, align 8
  %23 = load ptr, ptr %10, align 8
  %24 = load ptr, ptr %11, align 8
  call void @llvm.memcpy.p0.p0.i64(ptr align 8 %13, ptr align 8 %8, i64 16, i1 false)
  %25 = getelementptr inbounds nuw { ptr, i64 }, ptr %13, i32 0, i32 0
  %26 = load ptr, ptr %25, align 8
  %27 = getelementptr inbounds nuw { ptr, i64 }, ptr %13, i32 0, i32 1
  %28 = load i64, ptr %27, align 8
  %29 = call { ptr, i64 } @_ZN4llvm7AArch6415resolveCPUAliasENS_9StringRefE(ptr %26, i64 %28)
  %30 = getelementptr inbounds nuw { ptr, i64 }, ptr %12, i32 0, i32 0
  %31 = extractvalue { ptr, i64 } %29, 0
  store ptr %31, ptr %30, align 8
  %32 = getelementptr inbounds nuw { ptr, i64 }, ptr %12, i32 0, i32 1
  %33 = extractvalue { ptr, i64 } %29, 1
  store i64 %33, ptr %32, align 8
  call void @llvm.memcpy.p0.p0.i64(ptr align 8 %15, ptr align 8 %9, i64 16, i1 false)
  %34 = getelementptr inbounds nuw { ptr, i64 }, ptr %15, i32 0, i32 0
  %35 = load ptr, ptr %34, align 8
  %36 = getelementptr inbounds nuw { ptr, i64 }, ptr %15, i32 0, i32 1
  %37 = load i64, ptr %36, align 8
  %38 = call { ptr, i64 } @_ZN4llvm7AArch6415resolveCPUAliasENS_9StringRefE(ptr %35, i64 %37)
  %39 = getelementptr inbounds nuw { ptr, i64 }, ptr %14, i32 0, i32 0
  %40 = extractvalue { ptr, i64 } %38, 0
  store ptr %40, ptr %39, align 8
  %41 = getelementptr inbounds nuw { ptr, i64 }, ptr %14, i32 0, i32 1
  %42 = extractvalue { ptr, i64 } %38, 1
  store i64 %42, ptr %41, align 8
  call void @llvm.memcpy.p0.p0.i64(ptr align 8 %16, ptr align 8 %6, i64 16, i1 false)
  call void @_ZN4llvm8ArrayRefINS_18SubtargetFeatureKVEEC2EPKS1_m(ptr noundef nonnull align 8 dereferenceable(16) %17, ptr noundef @_ZN4llvm16AArch64FeatureKVE, i64 noundef 287)
  call void @_ZN4llvm8ArrayRefINS_18SubtargetSubTypeKVEEC2EPKS1_m(ptr noundef nonnull align 8 dereferenceable(16) %18, ptr noundef @_ZN4llvm16AArch64SubTypeKVE, i64 noundef 71)
  %43 = getelementptr inbounds nuw { ptr, i64 }, ptr %12, i32 0, i32 0
  %44 = load ptr, ptr %43, align 8
  %45 = getelementptr inbounds nuw { ptr, i64 }, ptr %12, i32 0, i32 1
  %46 = load i64, ptr %45, align 8
  %47 = getelementptr inbounds nuw { ptr, i64 }, ptr %14, i32 0, i32 0
  %48 = load ptr, ptr %47, align 8
  %49 = getelementptr inbounds nuw { ptr, i64 }, ptr %14, i32 0, i32 1
  %50 = load i64, ptr %49, align 8
  call void @_ZN4llvm19TargetSubtargetInfoC2ERKNS_6TripleENS_9StringRefES4_S4_NS_8ArrayRefINS_18SubtargetFeatureKVEEENS5_INS_18SubtargetSubTypeKVEEEPKNS_19MCWriteProcResEntryEPKNS_19MCWriteLatencyEntryEPKNS_18MCReadAdvanceEntryEPKNS_10InstrStageEPKjSN_(ptr noundef nonnull align 8 dereferenceable(288) %23, ptr noundef nonnull align 8 dereferenceable(56) %24, ptr %44, i64 %46, ptr %48, i64 %50, ptr noundef byval(%"class.llvm::StringRef") align 8 %16, ptr noundef byval(%"class.llvm::ArrayRef") align 8 %17, ptr noundef byval(%"class.llvm::ArrayRef.0") align 8 %18, ptr noundef @_ZN4llvm24AArch64WriteProcResTableE, ptr noundef @_ZN4llvm24AArch64WriteLatencyTableE, ptr noundef @_ZN4llvm23AArch64ReadAdvanceTableE, ptr noundef null, ptr noundef null, ptr noundef null)
  store ptr getelementptr inbounds inrange(-16, 488) ({ [63 x ptr] }, ptr @_ZTVN4llvm23AArch64GenSubtargetInfoE, i32 0, i32 0, i32 2), ptr %23, align 8
  ret void
}