; Function Attrs: mustprogress nounwind uwtable
define dso_local void @_ZN4llvm23AArch64GenSubtargetInfoC2ERKNS_6TripleENS_9StringRefES4_S4_(ptr noundef nonnull align 8 dereferenceable(288) %0, ptr noundef nonnull align 8 dereferenceable(56) %1, ptr %2, i64 %3, ptr %4, i64 %5, ptr nocapture noundef readonly byval(%"class.llvm::StringRef") align 8 %6) unnamed_addr #0 align 2 {
  %8 = alloca %"class.llvm::ArrayRef", align 8
  %9 = alloca %"class.llvm::ArrayRef.0", align 8
  %10 = tail call { ptr, i64 } @_ZN4llvm7AArch6415resolveCPUAliasENS_9StringRefE(ptr %2, i64 %3) #20
  %11 = extractvalue { ptr, i64 } %10, 0
  %12 = extractvalue { ptr, i64 } %10, 1
  %13 = tail call { ptr, i64 } @_ZN4llvm7AArch6415resolveCPUAliasENS_9StringRefE(ptr %4, i64 %5) #20
  %14 = extractvalue { ptr, i64 } %13, 0
  %15 = extractvalue { ptr, i64 } %13, 1
  store ptr @_ZN4llvm16AArch64FeatureKVE, ptr %8, align 8
  %16 = getelementptr inbounds nuw i8, ptr %8, i64 8
  store i64 287, ptr %16, align 8
  store ptr @_ZN4llvm16AArch64SubTypeKVE, ptr %9, align 8
  %17 = getelementptr inbounds nuw i8, ptr %9, i64 8
  store i64 71, ptr %17, align 8
  tail call void @_ZN4llvm19TargetSubtargetInfoC2ERKNS_6TripleENS_9StringRefES4_S4_NS_8ArrayRefINS_18SubtargetFeatureKVEEENS5_INS_18SubtargetSubTypeKVEEEPKNS_19MCWriteProcResEntryEPKNS_19MCWriteLatencyEntryEPKNS_18MCReadAdvanceEntryEPKNS_10InstrStageEPKjSN_(ptr noundef nonnull align 8 dereferenceable(288) %0, ptr noundef nonnull align 8 dereferenceable(56) %1, ptr %11, i64 %12, ptr %14, i64 %15, ptr noundef nonnull byval(%"class.llvm::StringRef") align 8 %6, ptr noundef nonnull byval(%"class.llvm::ArrayRef") align 8 %8, ptr noundef nonnull byval(%"class.llvm::ArrayRef.0") align 8 %9, ptr noundef nonnull @_ZN4llvm24AArch64WriteProcResTableE, ptr noundef nonnull @_ZN4llvm24AArch64WriteLatencyTableE, ptr noundef nonnull @_ZN4llvm23AArch64ReadAdvanceTableE, ptr noundef null, ptr noundef null, ptr noundef null) #20
  store ptr getelementptr inbounds inrange(-16, 488) (i8, ptr @_ZTVN4llvm23AArch64GenSubtargetInfoE, i64 16), ptr %0, align 8
  ret void
}